Certificate:
    Data:
        Version: 3 (0x2)
        Serial Number:
            fb:e2:6a:f9:1a:77:b8:fc:37:ac:a2:03:c7:00:97:cd
    Signature Algorithm: sha256WithRSAEncryption
        Issuer: C=CN, ST=ShaanXi, O=NickLi Ltd, OU=NickLi Ltd CA, CN=NickLi Root CA/emailAddress=ljfpower@163.com
        Validity
            Not Before: May 31 00:27:19 2020 GMT
            Not After : May 26 00:27:19 2040 GMT
        Subject: C=CN, ST=ShaanXi, O=NickLi Ltd, OU=NickLi Ltd CA, CN=NickLi Root CA/emailAddress=ljfpower@163.com
        Subject Public Key Info:
            Public Key Algorithm: rsaEncryption
                Public-Key: (4096 bit)
                Modulus:
                    00:9b:36:1a:f6:45:bc:c7:3b:a2:2e:e8:2e:15:75:
                    7a:d1:fb:2c:e9:89:9a:92:56:95:4b:f5:55:be:65:
                    3f:9c:11:45:54:fa:16:01:6a:25:62:34:53:b1:1a:
                    9c:cd:cd:4c:67:82:f8:79:3d:c4:f6:ca:77:37:57:
                    d8:f6:21:e4:bd:43:d9:4f:b7:6b:a8:c7:30:4a:c1:
                    5a:74:bf:07:f7:a7:60:33:7e:18:3f:d3:e0:a5:cf:
                    d7:61:57:35:be:ab:5a:bb:87:9c:69:40:5d:bc:28:
                    79:8d:17:c6:e3:c2:eb:46:90:c4:cf:7b:1a:aa:aa:
                    0c:67:e3:e0:b5:6d:48:b9:32:d0:09:37:55:19:cd:
                    ca:b0:00:e0:d6:1d:cc:d8:da:fc:b1:bd:d6:16:01:
                    06:fe:f2:62:9a:ae:ba:e4:55:51:ef:f0:29:5c:eb:
                    ad:81:97:82:e1:99:e4:bb:e5:7a:51:49:9f:09:59:
                    8c:41:bf:08:c7:2c:fb:7d:6d:24:fe:fc:3a:46:90:
                    49:00:2c:89:d1:45:f0:ab:42:be:de:a1:e1:75:51:
                    58:00:75:bb:a1:be:c8:af:f4:a7:49:b9:0a:82:02:
                    3d:2f:7c:80:82:ff:40:3d:c3:3d:87:51:a0:56:0d:
                    b0:8c:02:e1:a7:58:45:c0:41:f6:c9:42:57:0d:b6:
                    76:ed:d0:06:23:8e:56:36:70:f7:90:24:8a:ef:7a:
                    e1:cf:f5:f8:9e:be:24:e0:02:53:3e:c4:77:cc:b5:
                    b4:d8:f8:c9:6e:e9:d8:15:44:9c:1f:93:52:b2:4d:
                    e6:5f:b7:e0:3b:f4:46:db:da:5c:8f:c5:49:ed:14:
                    e4:62:91:a3:12:cb:ee:7a:77:1c:68:96:4d:87:73:
                    4a:f0:c9:24:9b:f8:fb:57:b8:77:e7:84:dd:0a:2e:
                    0a:8a:fb:34:bf:a7:c1:4a:70:e4:76:30:5b:bf:37:
                    9e:cd:13:7d:ea:5b:5c:34:0e:5b:86:c2:1d:83:ee:
                    8d:c0:48:d7:ec:77:3b:61:c6:e7:d2:ba:41:25:7e:
                    68:50:5a:d5:33:22:ab:ca:e5:6d:32:12:a4:36:74:
                    5a:e1:2d:1a:bb:16:cb:eb:b6:59:96:0c:cf:09:93:
                    e5:16:b4:1e:80:5b:f6:0a:ad:8f:42:4d:87:9e:7a:
                    79:e6:20:fa:3b:03:86:00:57:da:27:82:7b:09:f2:
                    e7:fc:6b:dd:94:3c:1b:24:a7:4e:c0:00:0d:77:2c:
                    76:bd:20:72:84:23:fc:0c:c3:20:08:30:ea:d6:b5:
                    ab:bc:01:dc:20:4a:55:60:72:11:95:64:42:59:fe:
                    c3:05:22:18:f0:da:a3:a7:ec:33:49:6a:be:c2:11:
                    4e:58:25
                Exponent: 65537 (0x10001)
        X509v3 extensions:
            X509v3 Subject Key Identifier: 
                01:24:44:7E:36:0C:C6:3C:C3:69:B2:79:6F:E1:F9:BD:3D:B4:16:21
            X509v3 Authority Key Identifier: 
                keyid:01:24:44:7E:36:0C:C6:3C:C3:69:B2:79:6F:E1:F9:BD:3D:B4:16:21

            X509v3 Basic Constraints: critical
                CA:TRUE
            X509v3 Key Usage: critical
                Digital Signature, Certificate Sign, CRL Sign
    Signature Algorithm: sha256WithRSAEncryption
         22:22:a6:05:e3:76:ea:6d:ed:f1:99:65:94:9e:0f:a0:ea:41:
         24:6b:e9:8b:5f:17:68:93:0d:03:7c:91:60:4f:65:ec:a2:24:
         40:c8:44:2a:2f:9d:c7:7f:fc:ed:0c:0c:8f:fc:ea:84:a0:f6:
         31:dc:e6:52:5f:3a:10:3a:92:70:3a:b3:40:0d:92:bd:0c:43:
         64:89:d2:5e:66:e4:b0:32:c9:cb:a1:c7:86:41:4a:de:5a:df:
         72:ac:22:cc:cd:03:c9:3b:3e:09:a5:0e:4a:56:a0:53:b3:14:
         f8:33:72:61:cb:bc:43:72:45:d6:d7:da:9e:87:9c:ae:89:3b:
         59:81:ae:e7:86:c4:01:26:ba:5b:6f:fc:e0:7c:4d:10:6b:e7:
         90:c6:15:73:d0:ca:d5:88:de:28:25:00:ec:ac:b9:c8:a9:75:
         c1:f6:79:09:0d:7f:50:4e:61:d4:03:3e:9d:50:b0:50:88:06:
         07:68:ce:0e:60:47:c7:00:ce:f7:b6:25:74:14:8a:97:b3:67:
         a9:fd:f0:5e:09:ad:28:9c:d9:19:8a:03:99:b5:89:53:bb:2d:
         6b:bc:c1:c0:7c:ab:6d:55:40:61:cc:a3:cb:2c:ed:c5:73:b1:
         3e:3f:04:2a:31:8a:3c:1d:a6:85:26:e6:44:1f:d9:df:db:8c:
         ae:65:84:6a:bb:e6:6a:40:3f:6a:8e:99:8e:51:96:96:e2:9a:
         d5:83:66:6b:48:a8:49:41:18:a1:00:7a:d3:89:13:bf:a9:33:
         50:26:24:20:88:e3:ec:3c:5b:21:c6:2f:91:dc:b9:1c:c9:db:
         2d:56:76:5f:6f:db:f0:69:31:6b:06:ec:46:2c:80:c2:02:61:
         7e:be:de:81:1e:2d:25:08:55:5f:93:2e:b5:f9:78:9f:52:65:
         16:7a:a6:eb:bd:13:b1:3c:7c:06:b0:d5:26:cf:0f:cb:6b:87:
         f5:04:bd:de:c7:15:ec:dc:45:23:09:0e:06:b2:2e:a4:b7:2c:
         ea:d0:7e:f2:63:1f:67:e2:0c:d0:c2:c5:88:8f:dc:6c:c1:4f:
         ba:3c:e4:f6:d3:12:8c:9a:36:32:d2:83:9b:be:8f:af:ba:f2:
         c2:12:1c:fa:8d:92:dc:35:91:f6:ae:bc:57:34:cd:fd:50:6e:
         51:37:79:0e:b8:68:60:c5:02:0a:2a:d4:f2:62:41:20:cd:9d:
         ef:da:18:3d:c7:f6:25:ea:5f:cc:04:d0:0e:35:08:fb:f2:58:
         22:8c:d3:d9:5d:24:f1:13:cb:0f:a5:1e:57:e9:67:19:ed:77:
         27:20:f5:06:84:d0:67:e0:b2:e3:31:71:83:bc:28:61:f7:22:
         f7:19:8f:fa:9c:8e:2e:40
-----BEGIN CERTIFICATE-----
MIIF/DCCA+SgAwIBAgIRAPviavkad7j8N6yiA8cAl80wDQYJKoZIhvcNAQELBQAw
gYYxCzAJBgNVBAYTAkNOMRAwDgYDVQQIDAdTaGFhblhpMRMwEQYDVQQKDApOaWNr
TGkgTHRkMRYwFAYDVQQLDA1OaWNrTGkgTHRkIENBMRcwFQYDVQQDDA5OaWNrTGkg
Um9vdCBDQTEfMB0GCSqGSIb3DQEJARYQbGpmcG93ZXJAMTYzLmNvbTAeFw0yMDA1
MzEwMDI3MTlaFw00MDA1MjYwMDI3MTlaMIGGMQswCQYDVQQGEwJDTjEQMA4GA1UE
CAwHU2hhYW5YaTETMBEGA1UECgwKTmlja0xpIEx0ZDEWMBQGA1UECwwNTmlja0xp
IEx0ZCBDQTEXMBUGA1UEAwwOTmlja0xpIFJvb3QgQ0ExHzAdBgkqhkiG9w0BCQEW
EGxqZnBvd2VyQDE2My5jb20wggIiMA0GCSqGSIb3DQEBAQUAA4ICDwAwggIKAoIC
AQCbNhr2RbzHO6Iu6C4VdXrR+yzpiZqSVpVL9VW+ZT+cEUVU+hYBaiViNFOxGpzN
zUxngvh5PcT2ync3V9j2IeS9Q9lPt2uoxzBKwVp0vwf3p2Azfhg/0+Clz9dhVzW+
q1q7h5xpQF28KHmNF8bjwutGkMTPexqqqgxn4+C1bUi5MtAJN1UZzcqwAODWHczY
2vyxvdYWAQb+8mKarrrkVVHv8Clc662Bl4LhmeS75XpRSZ8JWYxBvwjHLPt9bST+
/DpGkEkALInRRfCrQr7eoeF1UVgAdbuhvsiv9KdJuQqCAj0vfICC/0A9wz2HUaBW
DbCMAuGnWEXAQfbJQlcNtnbt0AYjjlY2cPeQJIrveuHP9fieviTgAlM+xHfMtbTY
+Mlu6dgVRJwfk1KyTeZft+A79Ebb2lyPxUntFORikaMSy+56dxxolk2Hc0rwySSb
+PtXuHfnhN0KLgqK+zS/p8FKcOR2MFu/N57NE33qW1w0DluGwh2D7o3ASNfsdzth
xufSukElfmhQWtUzIqvK5W0yEqQ2dFrhLRq7FsvrtlmWDM8Jk+UWtB6AW/YKrY9C
TYeeennmIPo7A4YAV9ongnsJ8uf8a92UPBskp07AAA13LHa9IHKEI/wMwyAIMOrW
tau8AdwgSlVgchGVZEJZ/sMFIhjw2qOn7DNJar7CEU5YJQIDAQABo2MwYTAdBgNV
HQ4EFgQUASREfjYMxjzDabJ5b+H5vT20FiEwHwYDVR0jBBgwFoAUASREfjYMxjzD
abJ5b+H5vT20FiEwDwYDVR0TAQH/BAUwAwEB/zAOBgNVHQ8BAf8EBAMCAYYwDQYJ
KoZIhvcNAQELBQADggIBACIipgXjdupt7fGZZZSeD6DqQSRr6YtfF2iTDQN8kWBP
ZeyiJEDIRCovncd//O0MDI/86oSg9jHc5lJfOhA6knA6s0ANkr0MQ2SJ0l5m5LAy
ycuhx4ZBSt5a33KsIszNA8k7PgmlDkpWoFOzFPgzcmHLvENyRdbX2p6HnK6JO1mB
rueGxAEmultv/OB8TRBr55DGFXPQytWI3iglAOysucipdcH2eQkNf1BOYdQDPp1Q
sFCIBgdozg5gR8cAzve2JXQUipezZ6n98F4JrSic2RmKA5m1iVO7LWu8wcB8q21V
QGHMo8ss7cVzsT4/BCoxijwdpoUm5kQf2d/bjK5lhGq75mpAP2qOmY5RlpbimtWD
ZmtIqElBGKEAetOJE7+pM1AmJCCI4+w8WyHGL5HcuRzJ2y1Wdl9v2/BpMWsG7EYs
gMICYX6+3oEeLSUIVV+TLrX5eJ9SZRZ6puu9E7E8fAaw1SbPD8trh/UEvd7HFezc
RSMJDgayLqS3LOrQfvJjH2fiDNDCxYiP3GzBT7o85PbTEoyaNjLSg5u+j6+68sIS
HPqNktw1kfauvFc0zf1QblE3eQ64aGDFAgoq1PJiQSDNne/aGD3H9iXqX8wE0A41
CPvyWCKM09ldJPETyw+lHlfpZxntdycg9QaE0GfgsuMxcYO8KGH3IvcZj/qcji5A
-----END CERTIFICATE-----
