Certificate:
    Data:
        Version: 3 (0x2)
        Serial Number:
            78:70:71:b6:27:cc:f8:6b:4f:40:94:bb:6a:de:7e:04
    Signature Algorithm: sha256WithRSAEncryption
        Issuer: C=CN, ST=Hebei, O=WireTiger Ltd, OU=WireTiger Ltd CA, CN=WireTiger Root CA/emailAddress=512657752@qq.com
        Validity
            Not Before: Aug  8 07:52:12 2020 GMT
            Not After : Aug  3 07:52:12 2040 GMT
        Subject: C=CN, ST=Hebei, O=WireTiger Ltd, OU=WireTiger Ltd CA, CN=WireTiger Root CA/emailAddress=512657752@qq.com
        Subject Public Key Info:
            Public Key Algorithm: rsaEncryption
                Public-Key: (4096 bit)
                Modulus:
                    00:dc:4a:ff:46:cb:2c:8c:71:5d:ca:71:6e:cf:e1:
                    d0:bc:75:0e:e4:50:c0:a9:b7:28:2d:a0:fc:f5:35:
                    04:d6:69:d9:24:5f:bd:6c:57:3d:ec:cb:40:4f:69:
                    e6:53:41:00:c2:5e:14:39:8c:36:69:71:07:b3:47:
                    80:ef:b7:d2:1d:d5:ba:bb:5b:84:98:f7:a1:da:19:
                    8d:6e:0f:04:d9:91:8e:b2:bf:a8:1f:ae:71:e5:d9:
                    56:5a:fb:66:0c:38:e7:33:74:75:16:57:0f:69:4c:
                    d6:51:a7:55:0a:1e:93:63:b3:e3:12:0e:c1:a2:a7:
                    f5:6c:2d:73:78:95:ec:2e:91:44:4d:c0:ed:0b:d7:
                    ad:50:92:15:d8:94:d0:64:45:ba:83:d8:4e:cc:a2:
                    8e:5a:db:02:c7:b0:56:fe:f7:36:3b:c9:54:a9:13:
                    87:b9:02:a9:3d:3d:b2:02:19:43:29:6b:b8:c6:6d:
                    47:7c:a6:7d:43:73:03:9a:0b:cc:d3:eb:63:2f:2d:
                    ae:23:08:f2:2f:c7:bd:d4:d0:bb:9f:c5:3c:e1:a8:
                    8d:62:0b:73:f9:3f:55:10:27:5b:5d:ba:6a:21:61:
                    1d:e2:5b:22:ef:d1:cb:77:8c:12:33:84:ac:b1:cc:
                    4f:0a:1a:4b:68:59:5e:e1:fe:18:92:db:bd:7d:ed:
                    5e:3e:4b:64:62:09:10:9c:cc:58:21:c5:87:38:ea:
                    46:a6:c7:b5:17:f7:b4:7e:5d:1c:0d:29:8d:ff:e9:
                    32:48:e6:6d:2a:b3:f8:49:49:43:25:81:49:ce:70:
                    e3:ce:25:a6:e5:3d:f7:f1:c5:c7:88:73:3d:35:30:
                    02:ef:d8:88:73:88:5a:d4:ae:d1:70:e3:19:d2:0b:
                    32:c4:d9:e4:51:bc:e6:7b:2f:d2:7d:ec:23:d0:48:
                    35:ba:73:4c:15:37:37:51:20:9e:a1:f4:13:d8:12:
                    04:7d:9a:21:f4:3c:d2:c8:2a:24:c0:8a:0a:21:1f:
                    c2:e1:69:62:2a:83:1d:ea:3e:83:ee:fa:e3:8b:54:
                    a3:f0:40:e1:8f:ed:c4:89:77:b9:4d:fb:5d:c4:df:
                    48:83:e3:9f:65:95:69:6b:ba:4a:ab:65:25:0c:e5:
                    49:b9:44:c1:99:eb:94:00:b9:99:78:18:fe:82:69:
                    41:1c:f4:a7:de:cd:b1:d5:b0:22:0d:8e:4a:33:49:
                    e4:8e:16:33:41:9c:52:a7:88:85:88:e6:b1:bb:70:
                    f5:69:d3:d5:d3:ed:38:da:96:94:be:ab:98:25:5c:
                    00:b9:24:0f:1d:cc:cd:d0:84:58:4c:90:35:b2:43:
                    54:f4:43:e4:70:13:39:3f:1f:60:23:9a:86:39:65:
                    dc:93:4f
                Exponent: 65537 (0x10001)
        X509v3 extensions:
            X509v3 Subject Key Identifier: 
                D4:37:67:60:CD:52:79:8A:AB:75:C9:1B:5B:60:A2:AB:89:76:BC:75
            X509v3 Authority Key Identifier: 
                keyid:D4:37:67:60:CD:52:79:8A:AB:75:C9:1B:5B:60:A2:AB:89:76:BC:75

            X509v3 Basic Constraints: critical
                CA:TRUE
            X509v3 Key Usage: critical
                Digital Signature, Certificate Sign, CRL Sign
    Signature Algorithm: sha256WithRSAEncryption
         51:ee:54:42:20:79:64:a2:9a:07:f4:bb:bd:a2:dc:c6:c5:ef:
         c4:97:3d:6a:fa:d2:c1:31:10:18:4a:42:39:fd:fa:33:7c:93:
         27:d8:6e:dc:75:d2:1d:ff:bb:07:43:58:38:92:17:3b:fc:11:
         92:32:3a:4d:f2:82:05:3f:64:95:c7:b6:72:5c:b7:76:4e:6f:
         dc:e9:1e:76:a0:7c:92:e9:42:dd:7f:f7:d4:15:21:03:a4:e4:
         a9:a4:0f:40:a0:cc:67:da:c1:44:2d:61:bf:c7:2f:1d:f5:74:
         a1:8f:a4:16:25:44:d9:c4:91:3b:5a:02:d8:6c:4f:5e:77:4f:
         70:2b:b1:db:9a:c8:e4:7c:55:27:d2:c1:01:b0:32:93:be:0e:
         d3:3f:6a:6c:5f:c4:e7:26:ff:c4:8e:d2:f5:e6:2a:0b:02:ff:
         4c:21:a6:5c:91:74:a9:b7:ea:b9:73:5c:5b:d0:8e:d1:6c:a8:
         da:bd:1a:dd:31:6b:2a:09:56:f3:c1:f8:2f:fa:db:3b:30:eb:
         99:b9:c3:16:fc:a4:7a:6d:97:93:29:21:b6:c3:df:62:fe:83:
         14:26:d5:70:71:69:f1:99:30:27:24:9a:7b:7e:13:94:5c:35:
         e5:03:73:70:62:37:b2:28:81:64:f6:af:4f:2f:d6:08:49:36:
         3c:ab:8c:4a:83:8d:2a:9a:1c:6e:a9:95:be:44:d1:7f:4c:6b:
         2a:f5:a0:3c:6a:71:de:2e:d6:67:7c:90:64:14:a7:15:58:01:
         28:1a:36:b7:6f:24:99:6c:e6:f5:87:3b:14:9b:2e:c5:82:8d:
         3f:38:4e:80:f8:59:f8:06:9b:1d:62:61:7a:63:00:24:ff:e2:
         05:29:45:c6:15:f3:c2:3d:14:f7:2b:ce:de:a6:91:70:f0:7e:
         8b:9b:cc:3c:aa:3a:f3:61:c5:53:93:34:e1:47:be:cf:2f:e6:
         43:94:6d:99:89:d3:52:db:1d:81:93:7e:d2:ee:89:c7:ab:ac:
         9a:6e:75:6c:29:a7:50:ed:75:34:ac:63:48:a0:29:7d:62:b1:
         f5:87:aa:3e:f8:86:84:27:8e:9d:0d:09:6d:e7:98:3b:c5:dc:
         a7:d0:8d:d2:7b:e8:f1:1b:a9:f3:98:ef:80:d4:42:4a:f5:95:
         78:12:a0:5a:17:fa:4e:25:31:c1:65:4a:ca:09:59:bc:c0:92:
         92:ab:bf:2d:dd:a6:62:f5:7a:f6:bd:17:cc:88:15:cf:11:d7:
         87:43:b8:9a:d7:6b:bb:27:db:20:98:a4:e4:c7:5f:62:19:cf:
         f5:1e:a0:fd:61:db:42:3f:69:60:b4:d8:aa:74:e3:af:6a:2f:
         59:d9:90:7a:b9:21:0a:01
-----BEGIN CERTIFICATE-----
MIIGCTCCA/GgAwIBAgIQeHBxtifM+GtPQJS7at5+BDANBgkqhkiG9w0BAQsFADCB
jTELMAkGA1UEBhMCQ04xDjAMBgNVBAgMBUhlYmVpMRYwFAYDVQQKDA1XaXJlVGln
ZXIgTHRkMRkwFwYDVQQLDBBXaXJlVGlnZXIgTHRkIENBMRowGAYDVQQDDBFXaXJl
VGlnZXIgUm9vdCBDQTEfMB0GCSqGSIb3DQEJARYQNTEyNjU3NzUyQHFxLmNvbTAe
Fw0yMDA4MDgwNzUyMTJaFw00MDA4MDMwNzUyMTJaMIGNMQswCQYDVQQGEwJDTjEO
MAwGA1UECAwFSGViZWkxFjAUBgNVBAoMDVdpcmVUaWdlciBMdGQxGTAXBgNVBAsM
EFdpcmVUaWdlciBMdGQgQ0ExGjAYBgNVBAMMEVdpcmVUaWdlciBSb290IENBMR8w
HQYJKoZIhvcNAQkBFhA1MTI2NTc3NTJAcXEuY29tMIICIjANBgkqhkiG9w0BAQEF
AAOCAg8AMIICCgKCAgEA3Er/RsssjHFdynFuz+HQvHUO5FDAqbcoLaD89TUE1mnZ
JF+9bFc97MtAT2nmU0EAwl4UOYw2aXEHs0eA77fSHdW6u1uEmPeh2hmNbg8E2ZGO
sr+oH65x5dlWWvtmDDjnM3R1FlcPaUzWUadVCh6TY7PjEg7Boqf1bC1zeJXsLpFE
TcDtC9etUJIV2JTQZEW6g9hOzKKOWtsCx7BW/vc2O8lUqROHuQKpPT2yAhlDKWu4
xm1HfKZ9Q3MDmgvM0+tjLy2uIwjyL8e91NC7n8U84aiNYgtz+T9VECdbXbpqIWEd
4lsi79HLd4wSM4SsscxPChpLaFle4f4Yktu9fe1ePktkYgkQnMxYIcWHOOpGpse1
F/e0fl0cDSmN/+kySOZtKrP4SUlDJYFJznDjziWm5T338cXHiHM9NTAC79iIc4ha
1K7RcOMZ0gsyxNnkUbzmey/Sfewj0Eg1unNMFTc3USCeofQT2BIEfZoh9DzSyCok
wIoKIR/C4WliKoMd6j6D7vrji1Sj8EDhj+3EiXe5TftdxN9Ig+OfZZVpa7pKq2Ul
DOVJuUTBmeuUALmZeBj+gmlBHPSn3s2x1bAiDY5KM0nkjhYzQZxSp4iFiOaxu3D1
adPV0+042paUvquYJVwAuSQPHczN0IRYTJA1skNU9EPkcBM5Px9gI5qGOWXck08C
AwEAAaNjMGEwHQYDVR0OBBYEFNQ3Z2DNUnmKq3XJG1tgoquJdrx1MB8GA1UdIwQY
MBaAFNQ3Z2DNUnmKq3XJG1tgoquJdrx1MA8GA1UdEwEB/wQFMAMBAf8wDgYDVR0P
AQH/BAQDAgGGMA0GCSqGSIb3DQEBCwUAA4ICAQBR7lRCIHlkopoH9Lu9otzGxe/E
lz1q+tLBMRAYSkI5/fozfJMn2G7cddId/7sHQ1g4khc7/BGSMjpN8oIFP2SVx7Zy
XLd2Tm/c6R52oHyS6ULdf/fUFSEDpOSppA9AoMxn2sFELWG/xy8d9XShj6QWJUTZ
xJE7WgLYbE9ed09wK7HbmsjkfFUn0sEBsDKTvg7TP2psX8TnJv/EjtL15ioLAv9M
IaZckXSpt+q5c1xb0I7RbKjavRrdMWsqCVbzwfgv+ts7MOuZucMW/KR6bZeTKSG2
w99i/oMUJtVwcWnxmTAnJJp7fhOUXDXlA3NwYjeyKIFk9q9PL9YISTY8q4xKg40q
mhxuqZW+RNF/TGsq9aA8anHeLtZnfJBkFKcVWAEoGja3bySZbOb1hzsUmy7Fgo0/
OE6A+Fn4BpsdYmF6YwAk/+IFKUXGFfPCPRT3K87eppFw8H6Lm8w8qjrzYcVTkzTh
R77PL+ZDlG2ZidNS2x2Bk37S7onHq6yabnVsKadQ7XU0rGNIoCl9YrH1h6o++IaE
J46dDQlt55g7xdyn0I3Se+jxG6nzmO+A1EJK9ZV4EqBaF/pOJTHBZUrKCVm8wJKS
q78t3aZi9Xr2vRfMiBXPEdeHQ7ia12u7J9sgmKTkx19iGc/1HqD9YdtCP2lgtNiq
dOOvai9Z2ZB6uSEKAQ==
-----END CERTIFICATE-----
