Certificate:
    Data:
        Version: 3 (0x2)
        Serial Number:
            78:2d:3b:5f:8d:a0:06:69:e2:bf:3c:00:19:1c:c2:18
    Signature Algorithm: sha256WithRSAEncryption
        Issuer: C=CN, ST=ShaanXi, O=NickLi Ltd, OU=NickLi Ltd CA, CN=NickLi Root CA/emailAddress=ljfpower@163.com
        Validity
            Not Before: May 17 08:34:38 2020 GMT
            Not After : May 12 08:34:38 2040 GMT
        Subject: C=CN, ST=ShaanXi, O=NickLi Ltd, OU=NickLi Ltd CA, CN=NickLi Root CA/emailAddress=ljfpower@163.com
        Subject Public Key Info:
            Public Key Algorithm: rsaEncryption
                Public-Key: (4096 bit)
                Modulus:
                    00:da:57:ed:d2:03:9f:8c:9e:36:be:de:25:09:05:
                    8c:a1:b8:df:33:08:49:51:01:6c:d7:90:c6:f3:09:
                    69:0f:8a:33:f1:32:46:cd:66:0a:cc:0e:c5:ee:f9:
                    db:8c:8b:60:81:cc:ee:72:f1:9a:75:6a:1f:7e:53:
                    30:43:f2:07:bb:14:60:8f:49:5b:47:00:20:f8:29:
                    ce:f8:bd:42:40:43:33:4b:49:24:66:3e:df:2f:99:
                    59:ed:75:b0:ad:8d:f6:66:c2:e2:7f:58:41:5a:f8:
                    fe:66:4e:94:6d:2a:ba:95:f6:12:c1:5f:63:f0:ef:
                    8f:f3:c0:af:12:a6:ad:90:98:a6:ad:6f:be:d0:1f:
                    63:73:f3:40:69:d3:9c:77:50:6b:ef:b6:39:4e:93:
                    82:3b:0d:68:62:2b:26:2d:dd:a2:d2:17:69:59:fe:
                    09:b9:47:b2:ac:a2:7d:a5:7a:b2:74:5c:2b:a1:29:
                    af:6a:45:94:a7:24:af:df:d0:b2:cd:29:b2:50:02:
                    03:0e:1f:cb:12:70:49:0a:fe:61:86:33:fd:a6:77:
                    01:e6:ff:48:e9:ce:7b:c8:9f:9c:42:ec:d5:82:27:
                    54:0b:41:a4:fa:32:07:38:2e:9d:f9:57:42:1c:b0:
                    ae:07:18:57:f9:09:ed:f5:4b:90:09:05:96:a9:94:
                    6d:80:5a:7f:19:6a:18:68:20:98:8d:4f:b5:3a:e1:
                    34:a6:e7:93:61:ba:bb:2b:04:3d:32:8f:cf:34:5b:
                    ef:4c:b5:0f:42:f3:22:24:4a:71:d3:5f:e2:3f:27:
                    39:1f:7f:5e:ae:c6:c0:e6:b9:cf:db:53:f0:d6:ef:
                    c4:77:dd:14:16:d3:98:32:95:77:72:43:41:ee:cd:
                    62:d2:e2:da:29:44:70:f1:6f:3d:c3:67:a4:08:fd:
                    76:5d:29:9f:fe:25:71:09:98:d5:38:bf:c8:a9:2b:
                    54:54:e5:2c:c9:8e:e2:e6:28:52:77:33:5a:9b:82:
                    2e:85:48:29:a5:a0:c6:61:a4:06:12:43:b5:81:2f:
                    04:0b:73:3d:56:6d:a4:b5:8b:15:f1:67:ee:ec:fd:
                    27:84:2a:9d:c5:6e:1c:93:2f:1f:bf:c9:b4:e8:bd:
                    67:41:bb:5d:2d:72:de:ac:b5:1b:81:ea:03:46:0a:
                    44:73:67:16:e0:4a:d4:0a:c4:df:49:d6:54:74:c6:
                    b1:8c:ed:19:c5:4d:97:1e:92:fc:bb:b7:25:cb:e7:
                    8d:a4:34:fd:36:0b:83:14:17:c3:b4:e7:dd:83:25:
                    d8:15:87:2f:bc:5a:2c:7d:c1:12:82:02:9f:b3:8c:
                    d8:73:b4:c6:d7:e1:4e:65:f6:53:83:a7:56:a2:e5:
                    47:6d:39
                Exponent: 65537 (0x10001)
        X509v3 extensions:
            X509v3 Subject Key Identifier: 
                68:71:99:06:1E:1A:88:27:7B:A3:E5:A8:FD:FA:81:5A:77:A6:DD:85
            X509v3 Authority Key Identifier: 
                keyid:68:71:99:06:1E:1A:88:27:7B:A3:E5:A8:FD:FA:81:5A:77:A6:DD:85

            X509v3 Basic Constraints: critical
                CA:TRUE
            X509v3 Key Usage: critical
                Digital Signature, Certificate Sign, CRL Sign
    Signature Algorithm: sha256WithRSAEncryption
         02:14:7a:f4:61:ea:7a:77:50:8a:93:81:18:5c:bb:aa:29:44:
         d1:60:66:02:62:7a:a7:fd:76:cf:c6:37:7f:b6:9a:92:2a:b4:
         5c:4f:37:cf:ef:ca:ec:9c:30:04:6f:2a:ad:1f:5d:e3:fe:d8:
         68:ed:20:df:e7:15:a7:bd:e1:03:39:4b:72:28:c4:eb:05:94:
         4c:5d:91:71:fa:42:ab:68:b4:75:eb:2a:fb:18:c9:03:0a:e3:
         8c:4d:8f:dd:22:14:8c:50:0f:b1:0e:3b:04:01:cf:65:90:3f:
         da:40:ab:35:9c:ef:6b:8c:bb:04:dd:ca:5a:df:7a:26:40:1b:
         3c:86:3b:9c:ec:12:33:60:1b:9b:44:1a:89:10:65:ab:62:57:
         bf:52:9b:d5:1d:ca:30:3c:5b:ff:cd:c0:d7:a4:a2:dd:bf:3c:
         a4:ca:91:53:5d:02:38:1f:ec:ed:be:0a:e4:a0:85:9e:58:69:
         85:ac:ea:43:cd:e2:34:5d:43:36:df:3d:25:e6:26:17:56:38:
         85:71:bf:68:4e:47:f2:0c:6d:4a:17:f9:e8:7c:56:e7:89:2d:
         e1:fb:42:be:05:ff:25:f1:cb:3a:71:d8:83:17:0f:1d:9c:11:
         26:3c:b9:41:d3:9d:a3:09:3f:69:d6:00:90:25:b5:ed:58:2d:
         b3:73:25:f1:43:c8:b0:b6:01:e3:a4:21:97:4d:6b:c8:2a:cd:
         b7:ea:15:03:e6:ca:d1:84:49:ff:c3:d4:49:9f:e6:6a:59:65:
         97:8d:6a:f8:a6:f7:c5:5a:ff:a3:0e:db:9f:e5:2d:1b:9e:a1:
         8e:8b:6c:68:fd:40:9d:ec:63:ae:90:ce:95:d0:37:b9:1b:61:
         dd:3a:0d:e2:93:ac:6b:70:44:7b:03:26:c5:b9:29:67:57:54:
         99:72:41:71:26:d2:88:09:b7:29:25:22:e2:b3:5a:bb:4d:7d:
         aa:cd:a6:92:aa:de:27:1d:dc:f7:37:98:d9:74:69:79:89:66:
         aa:53:c0:c9:01:bb:b9:a1:e8:23:13:02:76:eb:ec:b5:d4:81:
         96:93:bd:c4:02:8c:44:63:49:15:15:53:ab:e9:7e:e3:10:59:
         d1:d9:b6:03:cd:48:99:0d:ce:36:56:83:ec:c6:a3:33:c0:7b:
         9d:65:63:83:bf:6b:91:f2:6c:f5:f3:e3:31:b6:db:60:62:d3:
         86:04:ce:de:38:9f:59:fa:47:a0:fb:01:ad:20:a1:20:c4:e3:
         c6:39:17:f8:34:22:26:de:28:6e:cb:d9:1d:8a:d1:83:a4:a5:
         09:df:73:80:30:90:31:a9:5d:1c:37:d8:dd:b6:58:a5:e7:72:
         70:22:dc:ab:28:4b:67:af
-----BEGIN CERTIFICATE-----
MIIF+zCCA+OgAwIBAgIQeC07X42gBmnivzwAGRzCGDANBgkqhkiG9w0BAQsFADCB
hjELMAkGA1UEBhMCQ04xEDAOBgNVBAgMB1NoYWFuWGkxEzARBgNVBAoMCk5pY2tM
aSBMdGQxFjAUBgNVBAsMDU5pY2tMaSBMdGQgQ0ExFzAVBgNVBAMMDk5pY2tMaSBS
b290IENBMR8wHQYJKoZIhvcNAQkBFhBsamZwb3dlckAxNjMuY29tMB4XDTIwMDUx
NzA4MzQzOFoXDTQwMDUxMjA4MzQzOFowgYYxCzAJBgNVBAYTAkNOMRAwDgYDVQQI
DAdTaGFhblhpMRMwEQYDVQQKDApOaWNrTGkgTHRkMRYwFAYDVQQLDA1OaWNrTGkg
THRkIENBMRcwFQYDVQQDDA5OaWNrTGkgUm9vdCBDQTEfMB0GCSqGSIb3DQEJARYQ
bGpmcG93ZXJAMTYzLmNvbTCCAiIwDQYJKoZIhvcNAQEBBQADggIPADCCAgoCggIB
ANpX7dIDn4yeNr7eJQkFjKG43zMISVEBbNeQxvMJaQ+KM/EyRs1mCswOxe7524yL
YIHM7nLxmnVqH35TMEPyB7sUYI9JW0cAIPgpzvi9QkBDM0tJJGY+3y+ZWe11sK2N
9mbC4n9YQVr4/mZOlG0qupX2EsFfY/Dvj/PArxKmrZCYpq1vvtAfY3PzQGnTnHdQ
a++2OU6TgjsNaGIrJi3dotIXaVn+CblHsqyifaV6snRcK6Epr2pFlKckr9/Qss0p
slACAw4fyxJwSQr+YYYz/aZ3Aeb/SOnOe8ifnELs1YInVAtBpPoyBzgunflXQhyw
rgcYV/kJ7fVLkAkFlqmUbYBafxlqGGggmI1PtTrhNKbnk2G6uysEPTKPzzRb70y1
D0LzIiRKcdNf4j8nOR9/Xq7GwOa5z9tT8NbvxHfdFBbTmDKVd3JDQe7NYtLi2ilE
cPFvPcNnpAj9dl0pn/4lcQmY1Ti/yKkrVFTlLMmO4uYoUnczWpuCLoVIKaWgxmGk
BhJDtYEvBAtzPVZtpLWLFfFn7uz9J4QqncVuHJMvH7/JtOi9Z0G7XS1y3qy1G4Hq
A0YKRHNnFuBK1ArE30nWVHTGsYztGcVNlx6S/Lu3JcvnjaQ0/TYLgxQXw7Tn3YMl
2BWHL7xaLH3BEoICn7OM2HO0xtfhTmX2U4OnVqLlR205AgMBAAGjYzBhMB0GA1Ud
DgQWBBRocZkGHhqIJ3uj5aj9+oFad6bdhTAfBgNVHSMEGDAWgBRocZkGHhqIJ3uj
5aj9+oFad6bdhTAPBgNVHRMBAf8EBTADAQH/MA4GA1UdDwEB/wQEAwIBhjANBgkq
hkiG9w0BAQsFAAOCAgEAAhR69GHqendQipOBGFy7qilE0WBmAmJ6p/12z8Y3f7aa
kiq0XE83z+/K7JwwBG8qrR9d4/7YaO0g3+cVp73hAzlLcijE6wWUTF2RcfpCq2i0
desq+xjJAwrjjE2P3SIUjFAPsQ47BAHPZZA/2kCrNZzva4y7BN3KWt96JkAbPIY7
nOwSM2Abm0QaiRBlq2JXv1Kb1R3KMDxb/83A16Si3b88pMqRU10COB/s7b4K5KCF
nlhphazqQ83iNF1DNt89JeYmF1Y4hXG/aE5H8gxtShf56HxW54kt4ftCvgX/JfHL
OnHYgxcPHZwRJjy5QdOdowk/adYAkCW17Vgts3Ml8UPIsLYB46Qhl01ryCrNt+oV
A+bK0YRJ/8PUSZ/mallll41q+Kb3xVr/ow7bn+UtG56hjotsaP1AnexjrpDOldA3
uRth3ToN4pOsa3BEewMmxbkpZ1dUmXJBcSbSiAm3KSUi4rNau019qs2mkqreJx3c
9zeY2XRpeYlmqlPAyQG7uaHoIxMCduvstdSBlpO9xAKMRGNJFRVTq+l+4xBZ0dm2
A81ImQ3ONlaD7MajM8B7nWVjg79rkfJs9fPjMbbbYGLThgTO3jifWfpHoPsBrSCh
IMTjxjkX+DQiJt4obsvZHYrRg6SlCd9zgDCQMaldHDfY3bZYpedycCLcqyhLZ68=
-----END CERTIFICATE-----
